target datalayout = "e-m:e-p270:32:32-p271:32:32-p272:64:64-i64:64-i128:128-f80:128-n8:16:32:64-S128"
target triple = "x86_64-pc-linux-gnu"

%"class.std::__cxx11::basic_string" = type { %"struct.std::__cxx11::basic_string<char>::_Alloc_hider", i64, %union.anon }
%"struct.std::__cxx11::basic_string<char>::_Alloc_hider" = type { ptr }
%union.anon = type { i64, [8 x i8] }
%"class.Json::FastWriter" = type <{ %"class.Json::Writer", %"class.std::__cxx11::basic_string", i8, i8, i8, [5 x i8] }>
%"class.Json::Writer" = type { ptr }

; Function Attrs: mustprogress uwtable
define dso_local void @_ZN4Json10FastWriter5writeB5cxx11ERKNS_5ValueE(ptr dead_on_unwind noalias writable sret(%"class.std::__cxx11::basic_string") align 8 %0, ptr noundef nonnull align 8 dereferenceable(43) %1, ptr noundef nonnull align 8 dereferenceable(40) %2) unnamed_addr #0 align 2 {
  %4 = alloca ptr, align 8
  %5 = alloca ptr, align 8
  %6 = alloca ptr, align 8
  store ptr %0, ptr %4, align 8
  store ptr %1, ptr %5, align 8
  store ptr %2, ptr %6, align 8
  %7 = load ptr, ptr %5, align 8
  %8 = getelementptr inbounds %"class.Json::FastWriter", ptr %7, i32 0, i32 1
  call void @_ZNSt7__cxx1112basic_stringIcSt11char_traitsIcESaIcEE5clearEv(ptr noundef nonnull align 8 dereferenceable(32) %8) #9
  %9 = load ptr, ptr %6, align 8
  call void @_ZN4Json10FastWriter10writeValueERKNS_5ValueE(ptr noundef nonnull align 8 dereferenceable(43) %7, ptr noundef nonnull align 8 dereferenceable(40) %9)
  %10 = getelementptr inbounds %"class.Json::FastWriter", ptr %7, i32 0, i32 4
  %11 = load i8, ptr %10, align 2
  %12 = trunc i8 %11 to i1
  br i1 %12, label %16, label %13

13:                                               ; preds = %3
  %14 = getelementptr inbounds %"class.Json::FastWriter", ptr %7, i32 0, i32 1
  %15 = call noundef nonnull align 8 dereferenceable(32) ptr @_ZNSt7__cxx1112basic_stringIcSt11char_traitsIcESaIcEEpLEc(ptr noundef nonnull align 8 dereferenceable(32) %14, i8 noundef signext 10)
  br label %16

16:                                               ; preds = %13, %3
  %17 = getelementptr inbounds %"class.Json::FastWriter", ptr %7, i32 0, i32 1
  call void @_ZNSt7__cxx1112basic_stringIcSt11char_traitsIcESaIcEEC1ERKS4_(ptr noundef nonnull align 8 dereferenceable(32) %0, ptr noundef nonnull align 8 dereferenceable(32) %17)
  ret void
}