; Function Attrs: mustprogress uwtable
define dso_local void @_ZN4Json10FastWriter5writeB5cxx11ERKNS_5ValueE(ptr dead_on_unwind noalias writable sret(%"class.std::__cxx11::basic_string") align 8 %0, ptr noundef nonnull align 8 dereferenceable(43) %1, ptr noundef nonnull align 8 dereferenceable(40) %2) unnamed_addr #0 align 2 {
  %4 = getelementptr inbounds i8, ptr %1, i64 8
  tail call void @_ZNSt7__cxx1112basic_stringIcSt11char_traitsIcESaIcEE5clearEv(ptr noundef nonnull align 8 dereferenceable(32) %4) #19
  tail call void @_ZN4Json10FastWriter10writeValueERKNS_5ValueE(ptr noundef nonnull align 8 dereferenceable(43) %1, ptr noundef nonnull align 8 dereferenceable(40) %2)
  %5 = getelementptr inbounds i8, ptr %1, i64 42
  %6 = load i8, ptr %5, align 2
  %7 = and i8 %6, 1
  %.not = icmp eq i8 %7, 0
  br i1 %.not, label %8, label %10

8:                                                ; preds = %3
  %9 = tail call noundef nonnull align 8 dereferenceable(32) ptr @_ZNSt7__cxx1112basic_stringIcSt11char_traitsIcESaIcEEpLEc(ptr noundef nonnull align 8 dereferenceable(32) %4, i8 noundef signext 10)
  br label %10

10:                                               ; preds = %8, %3
  tail call void @_ZNSt7__cxx1112basic_stringIcSt11char_traitsIcESaIcEEC1ERKS4_(ptr noundef nonnull align 8 dereferenceable(32) %0, ptr noundef nonnull align 8 dereferenceable(32) %4)
  ret void
}